target datalayout = "e-m:e-p270:32:32-p271:32:32-p272:64:64-i64:64-i128:128-f80:128-n8:16:32:64-S128"
target triple = "x86_64-pc-linux-gnu"

%struct.blockreftable_hash = type { i64, i32, i32, i32, ptr, ptr, ptr }
%struct.BlockRefTableKey = type { %struct.RelFileLocator, i32 }
%struct.RelFileLocator = type { i32, i32, i32 }
%struct.BlockRefTableEntry = type { %struct.BlockRefTableKey, i32, i8, i32, ptr, ptr, ptr }

@.str.2 = private unnamed_addr constant [21 x i8] c"hash table too large\00", align 1
@.str.3 = private unnamed_addr constant [35 x i8] c"../../src/include/lib/simplehash.h\00", align 1
@__func__.blockreftable_compute_size = private unnamed_addr constant [27 x i8] c"blockreftable_compute_size\00", align 1

; Function Attrs: inlinehint nounwind uwtable
define internal i32 @pg_leftmost_one_pos64(i64 noundef %0) #3 {
  %2 = alloca i64, align 8
  store i64 %0, ptr %2, align 8
  %3 = load i64, ptr %2, align 8
  %4 = call i64 @llvm.ctlz.i64(i64 %3, i1 true)
  %5 = trunc i64 %4 to i32
  %6 = sub i32 63, %5
  ret i32 %6
}

; Function Attrs: inlinehint nounwind uwtable
define internal i64 @pg_nextpower2_64(i64 noundef %0) #3 {
  %2 = alloca i64, align 8
  %3 = alloca i64, align 8
  store i64 %0, ptr %3, align 8
  %4 = load i64, ptr %3, align 8
  %5 = load i64, ptr %3, align 8
  %6 = sub i64 %5, 1
  %7 = and i64 %4, %6
  %8 = icmp eq i64 %7, 0
  br i1 %8, label %9, label %11

9:                                                ; preds = %1
  %10 = load i64, ptr %3, align 8
  store i64 %10, ptr %2, align 8
  br label %17

11:                                               ; preds = %1
  %12 = load i64, ptr %3, align 8
  %13 = call i32 @pg_leftmost_one_pos64(i64 noundef %12)
  %14 = add i32 %13, 1
  %15 = zext i32 %14 to i64
  %16 = shl i64 1, %15
  store i64 %16, ptr %2, align 8
  br label %17

17:                                               ; preds = %11, %9
  %18 = load i64, ptr %2, align 8
  ret i64 %18
}

; Function Attrs: inlinehint nounwind uwtable
define internal void @blockreftable_free(ptr noundef %0, ptr noundef %1) #3 {
  %3 = alloca ptr, align 8
  %4 = alloca ptr, align 8
  store ptr %0, ptr %3, align 8
  store ptr %1, ptr %4, align 8
  %5 = load ptr, ptr %4, align 8
  call void @pfree(ptr noundef %5)
  ret void
}

; Function Attrs: inlinehint nounwind uwtable
define internal i32 @blockreftable_next(ptr noundef %0, i32 noundef %1, i32 noundef %2) #3 {
  %4 = alloca ptr, align 8
  %5 = alloca i32, align 4
  %6 = alloca i32, align 4
  store ptr %0, ptr %4, align 8
  store i32 %1, ptr %5, align 4
  store i32 %2, ptr %6, align 4
  %7 = load i32, ptr %5, align 4
  %8 = add i32 %7, 1
  %9 = load ptr, ptr %4, align 8
  %10 = getelementptr inbounds nuw %struct.blockreftable_hash, ptr %9, i32 0, i32 2
  %11 = load i32, ptr %10, align 4
  %12 = and i32 %8, %11
  store i32 %12, ptr %5, align 4
  %13 = load i32, ptr %5, align 4
  ret i32 %13
}

; Function Attrs: inlinehint nounwind uwtable
define internal i32 @blockreftable_initial_bucket(ptr noundef %0, i32 noundef %1) #3 {
  %3 = alloca ptr, align 8
  %4 = alloca i32, align 4
  store ptr %0, ptr %3, align 8
  store i32 %1, ptr %4, align 4
  %5 = load i32, ptr %4, align 4
  %6 = load ptr, ptr %3, align 8
  %7 = getelementptr inbounds nuw %struct.blockreftable_hash, ptr %6, i32 0, i32 2
  %8 = load i32, ptr %7, align 4
  %9 = and i32 %5, %8
  ret i32 %9
}

; Function Attrs: inlinehint nounwind uwtable
define internal i32 @blockreftable_entry_hash(ptr noundef %0, ptr noundef %1) #3 {
  %3 = alloca ptr, align 8
  %4 = alloca ptr, align 8
  store ptr %0, ptr %3, align 8
  store ptr %1, ptr %4, align 8
  %5 = load ptr, ptr %4, align 8
  %6 = getelementptr inbounds nuw %struct.BlockRefTableEntry, ptr %5, i32 0, i32 0
  %7 = call i32 @hash_bytes(ptr noundef %6, i32 noundef 16)
  ret i32 %7
}

; Function Attrs: inlinehint nounwind uwtable
define internal void @blockreftable_update_parameters(ptr noundef %0, i64 noundef %1) #3 {
  %3 = alloca ptr, align 8
  %4 = alloca i64, align 8
  %5 = alloca i64, align 8
  store ptr %0, ptr %3, align 8
  store i64 %1, ptr %4, align 8
  call void @llvm.lifetime.start.p0(i64 8, ptr %5) #10
  %6 = load i64, ptr %4, align 8
  %7 = call i64 @blockreftable_compute_size(i64 noundef %6)
  store i64 %7, ptr %5, align 8
  %8 = load i64, ptr %5, align 8
  %9 = load ptr, ptr %3, align 8
  %10 = getelementptr inbounds nuw %struct.blockreftable_hash, ptr %9, i32 0, i32 0
  store i64 %8, ptr %10, align 8
  %11 = load i64, ptr %5, align 8
  %12 = sub i64 %11, 1
  %13 = trunc i64 %12 to i32
  %14 = load ptr, ptr %3, align 8
  %15 = getelementptr inbounds nuw %struct.blockreftable_hash, ptr %14, i32 0, i32 2
  store i32 %13, ptr %15, align 4
  %16 = load ptr, ptr %3, align 8
  %17 = getelementptr inbounds nuw %struct.blockreftable_hash, ptr %16, i32 0, i32 0
  %18 = load i64, ptr %17, align 8
  %19 = icmp eq i64 %18, 4294967296
  br i1 %19, label %20, label %29

20:                                               ; preds = %2
  %21 = load ptr, ptr %3, align 8
  %22 = getelementptr inbounds nuw %struct.blockreftable_hash, ptr %21, i32 0, i32 0
  %23 = load i64, ptr %22, align 8
  %24 = uitofp i64 %23 to double
  %25 = fmul double %24, 0x3FEF5C28F5C28F5C
  %26 = fptoui double %25 to i32
  %27 = load ptr, ptr %3, align 8
  %28 = getelementptr inbounds nuw %struct.blockreftable_hash, ptr %27, i32 0, i32 3
  store i32 %26, ptr %28, align 8
  br label %38

29:                                               ; preds = %2
  %30 = load ptr, ptr %3, align 8
  %31 = getelementptr inbounds nuw %struct.blockreftable_hash, ptr %30, i32 0, i32 0
  %32 = load i64, ptr %31, align 8
  %33 = uitofp i64 %32 to double
  %34 = fmul double %33, 9.000000e-01
  %35 = fptoui double %34 to i32
  %36 = load ptr, ptr %3, align 8
  %37 = getelementptr inbounds nuw %struct.blockreftable_hash, ptr %36, i32 0, i32 3
  store i32 %35, ptr %37, align 8
  br label %38

38:                                               ; preds = %29, %20
  call void @llvm.lifetime.end.p0(i64 8, ptr %5) #10
  ret void
}

; Function Attrs: inlinehint nounwind uwtable
define internal ptr @blockreftable_allocate(ptr noundef %0, i64 noundef %1) #3 {
  %3 = alloca ptr, align 8
  %4 = alloca i64, align 8
  store ptr %0, ptr %3, align 8
  store i64 %1, ptr %4, align 8
  %5 = load ptr, ptr %3, align 8
  %6 = getelementptr inbounds nuw %struct.blockreftable_hash, ptr %5, i32 0, i32 5
  %7 = load ptr, ptr %6, align 8
  %8 = load i64, ptr %4, align 8
  %9 = call ptr @MemoryContextAllocExtended(ptr noundef %7, i64 noundef %8, i32 noundef 5)
  ret ptr %9
}

; Function Attrs: inlinehint nounwind uwtable
define internal i64 @blockreftable_compute_size(i64 noundef %0) #3 {
  %2 = alloca i64, align 8
  %3 = alloca i64, align 8
  store i64 %0, ptr %2, align 8
  call void @llvm.lifetime.start.p0(i64 8, ptr %3) #10
  %4 = load i64, ptr %2, align 8
  %5 = icmp ugt i64 %4, 2
  br i1 %5, label %6, label %8

6:                                                ; preds = %1
  %7 = load i64, ptr %2, align 8
  br label %9

8:                                                ; preds = %1
  br label %9

9:                                                ; preds = %8, %6
  %10 = phi i64 [ %7, %6 ], [ 2, %8 ]
  store i64 %10, ptr %3, align 8
  %11 = load i64, ptr %3, align 8
  %12 = call i64 @pg_nextpower2_64(i64 noundef %11)
  store i64 %12, ptr %3, align 8
  %13 = load i64, ptr %3, align 8
  %14 = mul i64 56, %13
  %15 = icmp uge i64 %14, 9223372036854775807
  %16 = zext i1 %15 to i32
  %17 = icmp ne i32 %16, 0
  %18 = zext i1 %17 to i32
  %19 = sext i32 %18 to i64
  %20 = call i64 @llvm.expect.i64(i64 %19, i64 0)
  %21 = icmp ne i64 %20, 0
  br i1 %21, label %22, label %33

22:                                               ; preds = %9
  br label %23

23:                                               ; preds = %22
  br i1 true, label %24, label %26

24:                                               ; preds = %23
  %25 = call zeroext i1 @errstart_cold(i32 noundef 21, ptr noundef null) #12
  br i1 %25, label %28, label %30

26:                                               ; preds = %23
  %27 = call zeroext i1 @errstart(i32 noundef 21, ptr noundef null)
  br i1 %27, label %28, label %30

28:                                               ; preds = %26, %24
  %29 = call i32 (ptr, ...) @errmsg_internal(ptr noundef @.str.2)
  call void @errfinish(ptr noundef @.str.3, i32 noundef 327, ptr noundef @__func__.blockreftable_compute_size)
  br label %30

30:                                               ; preds = %28, %26, %24
  unreachable

31:                                               ; No predecessors!
  br label %32

32:                                               ; preds = %31
  br label %33

33:                                               ; preds = %32, %9
  %34 = load i64, ptr %3, align 8
  call void @llvm.lifetime.end.p0(i64 8, ptr %3) #10
  ret i64 %34
}

; Function Attrs: inlinehint nounwind uwtable
define internal void @blockreftable_grow(ptr noundef %0, i64 noundef %1) #3 {
  %3 = alloca ptr, align 8
  %4 = alloca i64, align 8
  %5 = alloca i64, align 8
  %6 = alloca ptr, align 8
  %7 = alloca ptr, align 8
  %8 = alloca i32, align 4
  %9 = alloca i32, align 4
  %10 = alloca i32, align 4
  %11 = alloca ptr, align 8
  %12 = alloca i32, align 4
  %13 = alloca i32, align 4
  %14 = alloca i32, align 4
  %15 = alloca ptr, align 8
  %16 = alloca i32, align 4
  %17 = alloca i32, align 4
  %18 = alloca i32, align 4
  %19 = alloca ptr, align 8
  store ptr %0, ptr %3, align 8
  store i64 %1, ptr %4, align 8
  call void @llvm.lifetime.start.p0(i64 8, ptr %5) #10
  %20 = load ptr, ptr %3, align 8
  %21 = getelementptr inbounds nuw %struct.blockreftable_hash, ptr %20, i32 0, i32 0
  %22 = load i64, ptr %21, align 8
  store i64 %22, ptr %5, align 8
  call void @llvm.lifetime.start.p0(i64 8, ptr %6) #10
  %23 = load ptr, ptr %3, align 8
  %24 = getelementptr inbounds nuw %struct.blockreftable_hash, ptr %23, i32 0, i32 4
  %25 = load ptr, ptr %24, align 8
  store ptr %25, ptr %6, align 8
  call void @llvm.lifetime.start.p0(i64 8, ptr %7) #10
  call void @llvm.lifetime.start.p0(i64 4, ptr %8) #10
  call void @llvm.lifetime.start.p0(i64 4, ptr %9) #10
  store i32 0, ptr %9, align 4
  call void @llvm.lifetime.start.p0(i64 4, ptr %10) #10
  %26 = load i64, ptr %4, align 8
  %27 = call i64 @blockreftable_compute_size(i64 noundef %26)
  store i64 %27, ptr %4, align 8
  %28 = load ptr, ptr %3, align 8
  %29 = load i64, ptr %4, align 8
  %30 = mul i64 56, %29
  %31 = call ptr @blockreftable_allocate(ptr noundef %28, i64 noundef %30)
  %32 = load ptr, ptr %3, align 8
  %33 = getelementptr inbounds nuw %struct.blockreftable_hash, ptr %32, i32 0, i32 4
  store ptr %31, ptr %33, align 8
  %34 = load ptr, ptr %3, align 8
  %35 = load i64, ptr %4, align 8
  call void @blockreftable_update_parameters(ptr noundef %34, i64 noundef %35)
  %36 = load ptr, ptr %3, align 8
  %37 = getelementptr inbounds nuw %struct.blockreftable_hash, ptr %36, i32 0, i32 4
  %38 = load ptr, ptr %37, align 8
  store ptr %38, ptr %7, align 8
  store i32 0, ptr %8, align 4
  br label %39

39:                                               ; preds = %72, %2
  %40 = load i32, ptr %8, align 4
  %41 = zext i32 %40 to i64
  %42 = load i64, ptr %5, align 8
  %43 = icmp ult i64 %41, %42
  br i1 %43, label %44, label %75

44:                                               ; preds = %39
  call void @llvm.lifetime.start.p0(i64 8, ptr %11) #10
  %45 = load ptr, ptr %6, align 8
  %46 = load i32, ptr %8, align 4
  %47 = zext i32 %46 to i64
  %48 = getelementptr inbounds nuw %struct.BlockRefTableEntry, ptr %45, i64 %47
  store ptr %48, ptr %11, align 8
  call void @llvm.lifetime.start.p0(i64 4, ptr %12) #10
  call void @llvm.lifetime.start.p0(i64 4, ptr %13) #10
  %49 = load ptr, ptr %11, align 8
  %50 = getelementptr inbounds nuw %struct.BlockRefTableEntry, ptr %49, i32 0, i32 2
  %51 = load i8, ptr %50, align 4
  %52 = sext i8 %51 to i32
  %53 = icmp ne i32 %52, 1
  br i1 %53, label %54, label %56

54:                                               ; preds = %44
  %55 = load i32, ptr %8, align 4
  store i32 %55, ptr %9, align 4
  store i32 2, ptr %14, align 4
  br label %69

56:                                               ; preds = %44
  %57 = load ptr, ptr %3, align 8
  %58 = load ptr, ptr %11, align 8
  %59 = call i32 @blockreftable_entry_hash(ptr noundef %57, ptr noundef %58)
  store i32 %59, ptr %12, align 4
  %60 = load ptr, ptr %3, align 8
  %61 = load i32, ptr %12, align 4
  %62 = call i32 @blockreftable_initial_bucket(ptr noundef %60, i32 noundef %61)
  store i32 %62, ptr %13, align 4
  %63 = load i32, ptr %13, align 4
  %64 = load i32, ptr %8, align 4
  %65 = icmp eq i32 %63, %64
  br i1 %65, label %66, label %68

66:                                               ; preds = %56
  %67 = load i32, ptr %8, align 4
  store i32 %67, ptr %9, align 4
  store i32 2, ptr %14, align 4
  br label %69

68:                                               ; preds = %56
  store i32 0, ptr %14, align 4
  br label %69

69:                                               ; preds = %68, %66, %54
  call void @llvm.lifetime.end.p0(i64 4, ptr %13) #10
  call void @llvm.lifetime.end.p0(i64 4, ptr %12) #10
  call void @llvm.lifetime.end.p0(i64 8, ptr %11) #10
  %70 = load i32, ptr %14, align 4
  switch i32 %70, label %135 [
    i32 0, label %71
    i32 2, label %75
  ]

71:                                               ; preds = %69
  br label %72

72:                                               ; preds = %71
  %73 = load i32, ptr %8, align 4
  %74 = add i32 %73, 1
  store i32 %74, ptr %8, align 4
  br label %39, !llvm.loop !28

75:                                               ; preds = %69, %39
  %76 = load i32, ptr %9, align 4
  store i32 %76, ptr %10, align 4
  store i32 0, ptr %8, align 4
  br label %77

77:                                               ; preds = %129, %75
  %78 = load i32, ptr %8, align 4
  %79 = zext i32 %78 to i64
  %80 = load i64, ptr %5, align 8
  %81 = icmp ult i64 %79, %80
  br i1 %81, label %82, label %132

82:                                               ; preds = %77
  call void @llvm.lifetime.start.p0(i64 8, ptr %15) #10
  %83 = load ptr, ptr %6, align 8
  %84 = load i32, ptr %10, align 4
  %85 = zext i32 %84 to i64
  %86 = getelementptr inbounds nuw %struct.BlockRefTableEntry, ptr %83, i64 %85
  store ptr %86, ptr %15, align 8
  %87 = load ptr, ptr %15, align 8
  %88 = getelementptr inbounds nuw %struct.BlockRefTableEntry, ptr %87, i32 0, i32 2
  %89 = load i8, ptr %88, align 4
  %90 = sext i8 %89 to i32
  %91 = icmp eq i32 %90, 1
  br i1 %91, label %92, label %120

92:                                               ; preds = %82
  call void @llvm.lifetime.start.p0(i64 4, ptr %16) #10
  call void @llvm.lifetime.start.p0(i64 4, ptr %17) #10
  call void @llvm.lifetime.start.p0(i64 4, ptr %18) #10
  call void @llvm.lifetime.start.p0(i64 8, ptr %19) #10
  %93 = load ptr, ptr %3, align 8
  %94 = load ptr, ptr %15, align 8
  %95 = call i32 @blockreftable_entry_hash(ptr noundef %93, ptr noundef %94)
  store i32 %95, ptr %16, align 4
  %96 = load ptr, ptr %3, align 8
  %97 = load i32, ptr %16, align 4
  %98 = call i32 @blockreftable_initial_bucket(ptr noundef %96, i32 noundef %97)
  store i32 %98, ptr %17, align 4
  %99 = load i32, ptr %17, align 4
  store i32 %99, ptr %18, align 4
  br label %100

100:                                              ; preds = %112, %92
  br label %101

101:                                              ; preds = %100
  %102 = load ptr, ptr %7, align 8
  %103 = load i32, ptr %18, align 4
  %104 = zext i32 %103 to i64
  %105 = getelementptr inbounds nuw %struct.BlockRefTableEntry, ptr %102, i64 %104
  store ptr %105, ptr %19, align 8
  %106 = load ptr, ptr %19, align 8
  %107 = getelementptr inbounds nuw %struct.BlockRefTableEntry, ptr %106, i32 0, i32 2
  %108 = load i8, ptr %107, align 4
  %109 = sext i8 %108 to i32
  %110 = icmp eq i32 %109, 0
  br i1 %110, label %111, label %112

111:                                              ; preds = %101
  br label %117

112:                                              ; preds = %101
  %113 = load ptr, ptr %3, align 8
  %114 = load i32, ptr %18, align 4
  %115 = load i32, ptr %17, align 4
  %116 = call i32 @blockreftable_next(ptr noundef %113, i32 noundef %114, i32 noundef %115)
  store i32 %116, ptr %18, align 4
  br label %100

117:                                              ; preds = %111
  %118 = load ptr, ptr %19, align 8
  %119 = load ptr, ptr %15, align 8
  call void @llvm.memcpy.p0.p0.i64(ptr align 8 %118, ptr align 8 %119, i64 56, i1 false)
  call void @llvm.lifetime.end.p0(i64 8, ptr %19) #10
  call void @llvm.lifetime.end.p0(i64 4, ptr %18) #10
  call void @llvm.lifetime.end.p0(i64 4, ptr %17) #10
  call void @llvm.lifetime.end.p0(i64 4, ptr %16) #10
  br label %120

120:                                              ; preds = %117, %82
  %121 = load i32, ptr %10, align 4
  %122 = add i32 %121, 1
  store i32 %122, ptr %10, align 4
  %123 = load i32, ptr %10, align 4
  %124 = zext i32 %123 to i64
  %125 = load i64, ptr %5, align 8
  %126 = icmp uge i64 %124, %125
  br i1 %126, label %127, label %128

127:                                              ; preds = %120
  store i32 0, ptr %10, align 4
  br label %128

128:                                              ; preds = %127, %120
  call void @llvm.lifetime.end.p0(i64 8, ptr %15) #10
  br label %129

129:                                              ; preds = %128
  %130 = load i32, ptr %8, align 4
  %131 = add i32 %130, 1
  store i32 %131, ptr %8, align 4
  br label %77, !llvm.loop !29

132:                                              ; preds = %77
  %133 = load ptr, ptr %3, align 8
  %134 = load ptr, ptr %6, align 8
  call void @blockreftable_free(ptr noundef %133, ptr noundef %134)
  call void @llvm.lifetime.end.p0(i64 4, ptr %10) #10
  call void @llvm.lifetime.end.p0(i64 4, ptr %9) #10
  call void @llvm.lifetime.end.p0(i64 4, ptr %8) #10
  call void @llvm.lifetime.end.p0(i64 8, ptr %7) #10
  call void @llvm.lifetime.end.p0(i64 8, ptr %6) #10
  call void @llvm.lifetime.end.p0(i64 8, ptr %5) #10
  ret void

135:                                              ; preds = %69
  unreachable
}